; Function Attrs: nounwind uwtable
define ptr @l_Lean_Compiler_LCNF_InferType_mkForallParams___boxed(ptr noundef %0, ptr noundef %1, ptr noundef %2, ptr noundef %3, ptr noundef %4, ptr noundef %5, ptr noundef %6, ptr noundef %7) local_unnamed_addr #0 {
  %9 = getelementptr i8, ptr %0, i64 8
  %.val.i = load i64, ptr %9, align 8, !tbaa !12
  %10 = tail call ptr @l_Array_mapMUnsafe_map___at_Lean_Compiler_LCNF_InferType_mkForallParams___spec__1(i64 noundef %.val.i, i64 noundef 0, ptr noundef %0)
  %11 = load ptr, ptr @l_Lean_Compiler_LCNF_InferType_mkForallParams___closed__6, align 8, !tbaa !10
  %12 = tail call ptr @lean_expr_abstract(ptr noundef %1, ptr noundef %10) #5
  %13 = getelementptr i8, ptr %10, i64 8
  %.val.i.i = load i64, ptr %13, align 8, !tbaa !12
  %14 = shl i64 %.val.i.i, 1
  %15 = or disjoint i64 %14, 1
  %16 = inttoptr i64 %15 to ptr
  %17 = tail call ptr @l_Nat_foldRevM_loop___at_Lean_Compiler_LCNF_InferType_mkForallFVars___spec__1(ptr noundef %10, ptr nonnull poison, ptr noundef nonnull %16, ptr nonnull poison, ptr noundef %12, ptr noundef %11, ptr noundef %3, ptr noundef %4, ptr noundef %5, ptr noundef %6, ptr noundef %7)
  %18 = ptrtoint ptr %10 to i64
  %19 = and i64 %18, 1
  %.not.i30 = icmp eq i64 %19, 0
  br i1 %.not.i30, label %20, label %l_Lean_Compiler_LCNF_InferType_mkForallParams.exit

20:                                               ; preds = %8
  %21 = load i32, ptr %10, align 4, !tbaa !4
  %22 = icmp sgt i32 %21, 1
  br i1 %22, label %23, label %25, !prof !9

23:                                               ; preds = %20
  %24 = add nsw i32 %21, -1
  store i32 %24, ptr %10, align 4, !tbaa !4
  br label %l_Lean_Compiler_LCNF_InferType_mkForallParams.exit

25:                                               ; preds = %20
  %.not.i.i = icmp eq i32 %21, 0
  br i1 %.not.i.i, label %l_Lean_Compiler_LCNF_InferType_mkForallParams.exit, label %26

26:                                               ; preds = %25
  tail call void @lean_dec_ref_cold(ptr noundef nonnull %10) #5
  br label %l_Lean_Compiler_LCNF_InferType_mkForallParams.exit

l_Lean_Compiler_LCNF_InferType_mkForallParams.exit: ; preds = %8, %23, %25, %26
  %27 = ptrtoint ptr %6 to i64
  %28 = and i64 %27, 1
  %.not = icmp eq i64 %28, 0
  br i1 %.not, label %29, label %lean_dec.exit19

29:                                               ; preds = %l_Lean_Compiler_LCNF_InferType_mkForallParams.exit
  %30 = load i32, ptr %6, align 4, !tbaa !4
  %31 = icmp sgt i32 %30, 1
  br i1 %31, label %32, label %34, !prof !9

32:                                               ; preds = %29
  %33 = add nsw i32 %30, -1
  store i32 %33, ptr %6, align 4, !tbaa !4
  br label %lean_dec.exit19

34:                                               ; preds = %29
  %.not.i = icmp eq i32 %30, 0
  br i1 %.not.i, label %lean_dec.exit19, label %35

35:                                               ; preds = %34
  tail call void @lean_dec_ref_cold(ptr noundef nonnull %6) #5
  br label %lean_dec.exit19

lean_dec.exit19:                                  ; preds = %35, %34, %32, %l_Lean_Compiler_LCNF_InferType_mkForallParams.exit
  %36 = ptrtoint ptr %5 to i64
  %37 = and i64 %36, 1
  %.not31 = icmp eq i64 %37, 0
  br i1 %.not31, label %38, label %lean_dec.exit18

38:                                               ; preds = %lean_dec.exit19
  %39 = load i32, ptr %5, align 4, !tbaa !4
  %40 = icmp sgt i32 %39, 1
  br i1 %40, label %41, label %43, !prof !9

41:                                               ; preds = %38
  %42 = add nsw i32 %39, -1
  store i32 %42, ptr %5, align 4, !tbaa !4
  br label %lean_dec.exit18

43:                                               ; preds = %38
  %.not.i20 = icmp eq i32 %39, 0
  br i1 %.not.i20, label %lean_dec.exit18, label %44

44:                                               ; preds = %43
  tail call void @lean_dec_ref_cold(ptr noundef nonnull %5) #5
  br label %lean_dec.exit18

lean_dec.exit18:                                  ; preds = %44, %43, %41, %lean_dec.exit19
  %45 = ptrtoint ptr %4 to i64
  %46 = and i64 %45, 1
  %.not32 = icmp eq i64 %46, 0
  br i1 %.not32, label %47, label %lean_dec.exit17

47:                                               ; preds = %lean_dec.exit18
  %48 = load i32, ptr %4, align 4, !tbaa !4
  %49 = icmp sgt i32 %48, 1
  br i1 %49, label %50, label %52, !prof !9

50:                                               ; preds = %47
  %51 = add nsw i32 %48, -1
  store i32 %51, ptr %4, align 4, !tbaa !4
  br label %lean_dec.exit17

52:                                               ; preds = %47
  %.not.i22 = icmp eq i32 %48, 0
  br i1 %.not.i22, label %lean_dec.exit17, label %53

53:                                               ; preds = %52
  tail call void @lean_dec_ref_cold(ptr noundef nonnull %4) #5
  br label %lean_dec.exit17

lean_dec.exit17:                                  ; preds = %53, %52, %50, %lean_dec.exit18
  %54 = ptrtoint ptr %3 to i64
  %55 = and i64 %54, 1
  %.not33 = icmp eq i64 %55, 0
  br i1 %.not33, label %56, label %lean_dec.exit16

56:                                               ; preds = %lean_dec.exit17
  %57 = load i32, ptr %3, align 4, !tbaa !4
  %58 = icmp sgt i32 %57, 1
  br i1 %58, label %59, label %61, !prof !9

59:                                               ; preds = %56
  %60 = add nsw i32 %57, -1
  store i32 %60, ptr %3, align 4, !tbaa !4
  br label %lean_dec.exit16

61:                                               ; preds = %56
  %.not.i24 = icmp eq i32 %57, 0
  br i1 %.not.i24, label %lean_dec.exit16, label %62

62:                                               ; preds = %61
  tail call void @lean_dec_ref_cold(ptr noundef nonnull %3) #5
  br label %lean_dec.exit16

lean_dec.exit16:                                  ; preds = %62, %61, %59, %lean_dec.exit17
  %63 = ptrtoint ptr %2 to i64
  %64 = and i64 %63, 1
  %.not34 = icmp eq i64 %64, 0
  br i1 %.not34, label %65, label %lean_dec.exit15

65:                                               ; preds = %lean_dec.exit16
  %66 = load i32, ptr %2, align 4, !tbaa !4
  %67 = icmp sgt i32 %66, 1
  br i1 %67, label %68, label %70, !prof !9

68:                                               ; preds = %65
  %69 = add nsw i32 %66, -1
  store i32 %69, ptr %2, align 4, !tbaa !4
  br label %lean_dec.exit15

70:                                               ; preds = %65
  %.not.i26 = icmp eq i32 %66, 0
  br i1 %.not.i26, label %lean_dec.exit15, label %71

71:                                               ; preds = %70
  tail call void @lean_dec_ref_cold(ptr noundef nonnull %2) #5
  br label %lean_dec.exit15

lean_dec.exit15:                                  ; preds = %71, %70, %68, %lean_dec.exit16
  %72 = ptrtoint ptr %1 to i64
  %73 = and i64 %72, 1
  %.not35 = icmp eq i64 %73, 0
  br i1 %.not35, label %74, label %lean_dec.exit

74:                                               ; preds = %lean_dec.exit15
  %75 = load i32, ptr %1, align 4, !tbaa !4
  %76 = icmp sgt i32 %75, 1
  br i1 %76, label %77, label %79, !prof !9

77:                                               ; preds = %74
  %78 = add nsw i32 %75, -1
  store i32 %78, ptr %1, align 4, !tbaa !4
  br label %lean_dec.exit

79:                                               ; preds = %74
  %.not.i28 = icmp eq i32 %75, 0
  br i1 %.not.i28, label %lean_dec.exit, label %80

80:                                               ; preds = %79
  tail call void @lean_dec_ref_cold(ptr noundef nonnull %1) #5
  br label %lean_dec.exit

lean_dec.exit:                                    ; preds = %80, %79, %77, %lean_dec.exit15
  ret ptr %17
}